target datalayout = "e-m:e-p270:32:32-p271:32:32-p272:64:64-i64:64-i128:128-f80:128-n8:16:32:64-S128"
target triple = "x86_64-unknown-linux-gnu"

; Function Attrs: mustprogress nounwind uwtable
define noundef i32 @_ZN8QuantLib8Calendar11WesternImpl12easterMondayEi(i32 noundef %y) #1 align 2 {
entry:
  %y.addr = alloca i32, align 4
  store i32 %y, ptr %y.addr, align 4, !tbaa !21
  %0 = load i32, ptr %y.addr, align 4, !tbaa !21
  %sub = sub nsw i32 %0, 1901
  %idxprom = sext i32 %sub to i64
  %arrayidx = getelementptr inbounds [299 x i8], ptr @_ZZN8QuantLib8Calendar11WesternImpl12easterMondayEiE12EasterMonday, i64 0, i64 %idxprom
  %1 = load i8, ptr %arrayidx, align 1, !tbaa !41
  %conv = zext i8 %1 to i32
  ret i32 %conv
}